target datalayout = "e-m:e-p270:32:32-p271:32:32-p272:64:64-i64:64-i128:128-f80:128-n8:16:32:64-S128"
target triple = "x86_64-pc-linux-gnu"

%"class.std::__cxx11::basic_string" = type { %"struct.std::__cxx11::basic_string<char>::_Alloc_hider", i64, %union.anon }
%"struct.std::__cxx11::basic_string<char>::_Alloc_hider" = type { ptr }
%union.anon = type { i64, [8 x i8] }
%"class.Imf_3_4::(anonymous namespace)::MemAttrStream" = type { %"class.Imf_3_4::IStream", ptr, i64, i64 }
%"class.Imf_3_4::IStream" = type { ptr, %"class.std::__cxx11::basic_string" }

@_ZTIN7Iex_3_48InputExcE = external constant ptr
@.str.56 = private unnamed_addr constant [24 x i8] c"Unexpected end of file.\00", align 1

; Function Attrs: mustprogress uwtable
define internal noundef zeroext i1 @_ZN7Imf_3_412_GLOBAL__N_113MemAttrStream4readEPci(ptr noundef nonnull align 8 dereferenceable(64) %0, ptr noundef %1, i32 noundef %2) unnamed_addr #4 align 2 personality ptr @__gxx_personality_v0 {
  %4 = alloca ptr, align 8
  %5 = alloca ptr, align 8
  %6 = alloca i32, align 4
  %7 = alloca ptr, align 8
  %8 = alloca i32, align 4
  %9 = alloca i64, align 8
  %10 = alloca i8, align 1
  store ptr %0, ptr %4, align 8, !tbaa !209
  store ptr %1, ptr %5, align 8, !tbaa !15
  store i32 %2, ptr %6, align 4, !tbaa !19
  %11 = load ptr, ptr %4, align 8
  %12 = getelementptr inbounds nuw %"class.Imf_3_4::(anonymous namespace)::MemAttrStream", ptr %11, i32 0, i32 3
  %13 = load i64, ptr %12, align 8, !tbaa !217
  %14 = getelementptr inbounds nuw %"class.Imf_3_4::(anonymous namespace)::MemAttrStream", ptr %11, i32 0, i32 2
  %15 = load i64, ptr %14, align 8, !tbaa !216
  %16 = icmp uge i64 %13, %15
  br i1 %16, label %17, label %27

17:                                               ; preds = %3
  %18 = load i32, ptr %6, align 4, !tbaa !19
  %19 = icmp ne i32 %18, 0
  br i1 %19, label %20, label %27

20:                                               ; preds = %17
  %21 = call ptr @__cxa_allocate_exception(i64 72) #3
  invoke void @_ZN7Iex_3_48InputExcC1EPKc(ptr noundef nonnull align 8 dereferenceable(72) %21, ptr noundef @.str.56)
          to label %22 unwind label %23

22:                                               ; preds = %20
  call void @__cxa_throw(ptr %21, ptr @_ZTIN7Iex_3_48InputExcE, ptr @_ZN7Iex_3_48InputExcD1Ev) #23
  unreachable

23:                                               ; preds = %20
  %24 = landingpad { ptr, i32 }
          cleanup
  %25 = extractvalue { ptr, i32 } %24, 0
  store ptr %25, ptr %7, align 8
  %26 = extractvalue { ptr, i32 } %24, 1
  store i32 %26, ptr %8, align 4
  call void @__cxa_free_exception(ptr %21) #3
  br label %57

27:                                               ; preds = %17, %3
  call void @llvm.lifetime.start.p0(i64 8, ptr %9) #3
  %28 = load i32, ptr %6, align 4, !tbaa !19
  %29 = sext i32 %28 to i64
  store i64 %29, ptr %9, align 8, !tbaa !168
  call void @llvm.lifetime.start.p0(i64 1, ptr %10) #3
  store i8 1, ptr %10, align 1, !tbaa !33
  %30 = getelementptr inbounds nuw %"class.Imf_3_4::(anonymous namespace)::MemAttrStream", ptr %11, i32 0, i32 2
  %31 = load i64, ptr %30, align 8, !tbaa !216
  %32 = getelementptr inbounds nuw %"class.Imf_3_4::(anonymous namespace)::MemAttrStream", ptr %11, i32 0, i32 3
  %33 = load i64, ptr %32, align 8, !tbaa !217
  %34 = sub i64 %31, %33
  %35 = load i64, ptr %9, align 8, !tbaa !168
  %36 = icmp ule i64 %34, %35
  br i1 %36, label %37, label %43

37:                                               ; preds = %27
  %38 = getelementptr inbounds nuw %"class.Imf_3_4::(anonymous namespace)::MemAttrStream", ptr %11, i32 0, i32 2
  %39 = load i64, ptr %38, align 8, !tbaa !216
  %40 = getelementptr inbounds nuw %"class.Imf_3_4::(anonymous namespace)::MemAttrStream", ptr %11, i32 0, i32 3
  %41 = load i64, ptr %40, align 8, !tbaa !217
  %42 = sub i64 %39, %41
  store i64 %42, ptr %9, align 8, !tbaa !168
  store i8 0, ptr %10, align 1, !tbaa !33
  br label %43

43:                                               ; preds = %37, %27
  %44 = load ptr, ptr %5, align 8, !tbaa !15
  %45 = getelementptr inbounds nuw %"class.Imf_3_4::(anonymous namespace)::MemAttrStream", ptr %11, i32 0, i32 1
  %46 = load ptr, ptr %45, align 8, !tbaa !211
  %47 = getelementptr inbounds nuw %"class.Imf_3_4::(anonymous namespace)::MemAttrStream", ptr %11, i32 0, i32 3
  %48 = load i64, ptr %47, align 8, !tbaa !217
  %49 = getelementptr inbounds nuw i8, ptr %46, i64 %48
  %50 = load i64, ptr %9, align 8, !tbaa !168
  call void @llvm.memcpy.p0.p0.i64(ptr align 1 %44, ptr align 1 %49, i64 %50, i1 false)
  %51 = load i64, ptr %9, align 8, !tbaa !168
  %52 = getelementptr inbounds nuw %"class.Imf_3_4::(anonymous namespace)::MemAttrStream", ptr %11, i32 0, i32 3
  %53 = load i64, ptr %52, align 8, !tbaa !217
  %54 = add i64 %53, %51
  store i64 %54, ptr %52, align 8, !tbaa !217
  %55 = load i8, ptr %10, align 1, !tbaa !33, !range !35, !noundef !36
  %56 = trunc i8 %55 to i1
  call void @llvm.lifetime.end.p0(i64 1, ptr %10) #3
  call void @llvm.lifetime.end.p0(i64 8, ptr %9) #3
  ret i1 %56

57:                                               ; preds = %23
  %58 = load ptr, ptr %7, align 8
  %59 = load i32, ptr %8, align 4
  %60 = insertvalue { ptr, i32 } poison, ptr %58, 0
  %61 = insertvalue { ptr, i32 } %60, i32 %59, 1
  resume { ptr, i32 } %61
}