; Function Attrs: mustprogress uwtable
define internal noundef zeroext i1 @_ZN7Imf_3_412_GLOBAL__N_113MemAttrStream4readEPci(ptr noundef nonnull align 8 captures(none) dereferenceable(64) %0, ptr noundef writeonly captures(none) %1, i32 noundef %2) unnamed_addr #3 align 2 personality ptr @__gxx_personality_v0 {
  %4 = getelementptr inbounds nuw i8, ptr %0, i64 56
  %5 = load i64, ptr %4, align 8, !tbaa !182
  %6 = getelementptr inbounds nuw i8, ptr %0, i64 48
  %7 = load i64, ptr %6, align 8, !tbaa !181
  %8 = icmp uge i64 %5, %7
  %9 = icmp ne i32 %2, 0
  %or.cond = and i1 %9, %8
  br i1 %or.cond, label %10, label %15

10:                                               ; preds = %3
  %11 = tail call ptr @__cxa_allocate_exception(i64 72) #30
  invoke void @_ZN7Iex_3_48InputExcC1EPKc(ptr noundef nonnull align 8 dereferenceable(72) %11, ptr noundef nonnull @.str.56)
          to label %12 unwind label %13

12:                                               ; preds = %10
  tail call void @__cxa_throw(ptr nonnull %11, ptr nonnull @_ZTIN7Iex_3_48InputExcE, ptr nonnull @_ZN7Iex_3_48InputExcD1Ev) #32
  unreachable

13:                                               ; preds = %10
  %14 = landingpad { ptr, i32 }
          cleanup
  tail call void @__cxa_free_exception(ptr nonnull %11) #30
  resume { ptr, i32 } %14

15:                                               ; preds = %3
  %16 = sext i32 %2 to i64
  %17 = sub i64 %7, %5
  %.not = icmp ugt i64 %17, %16
  %spec.select = tail call i64 @llvm.umin.i64(i64 %17, i64 %16)
  %18 = getelementptr inbounds nuw i8, ptr %0, i64 40
  %19 = load ptr, ptr %18, align 8, !tbaa !177
  %20 = getelementptr inbounds nuw i8, ptr %19, i64 %5
  tail call void @llvm.memcpy.p0.p0.i64(ptr align 1 %1, ptr align 1 %20, i64 %spec.select, i1 false)
  %21 = load i64, ptr %4, align 8, !tbaa !182
  %22 = add i64 %21, %spec.select
  store i64 %22, ptr %4, align 8, !tbaa !182
  ret i1 %.not
}